; Function Attrs: mustprogress uwtable
define noundef zeroext i1 @_ZN32pxrInternal_v0_24__pxrReserved__40UsdImagingIsHdMaterialNetworkTimeVaryingERKNS_7UsdPrimE(ptr noundef nonnull align 8 dereferenceable(32) %0) local_unnamed_addr #0 personality ptr @__gxx_personality_v0 {
  %2 = alloca %"class.std::unordered_set", align 8
  %3 = alloca %"class.pxrInternal_v0_24__pxrReserved__::UsdShadeConnectableAPI", align 8
  %4 = getelementptr inbounds nuw i8, ptr %2, i64 48
  store ptr %4, ptr %2, align 8
  %5 = getelementptr inbounds nuw i8, ptr %2, i64 8
  store i64 1, ptr %5, align 8
  %6 = getelementptr inbounds nuw i8, ptr %2, i64 16
  %7 = getelementptr inbounds nuw i8, ptr %2, i64 32
  call void @llvm.memset.p0.i64(ptr noundef nonnull align 8 dereferenceable(16) %6, i8 0, i64 16, i1 false)
  store float 1.000000e+00, ptr %7, align 8
  %8 = getelementptr inbounds i8, ptr %2, i64 40
  call void @llvm.memset.p0.i64(ptr noundef nonnull align 8 dereferenceable(16) %8, i8 0, i64 16, i1 false)
  invoke void @_ZN32pxrInternal_v0_24__pxrReserved__13UsdSchemaBaseC2ERKNS_7UsdPrimE(ptr noundef nonnull align 8 dereferenceable(24) %3, ptr noundef nonnull align 8 dereferenceable(32) %0)
          to label %9 unwind label %42

9:                                                ; preds = %1
  %10 = getelementptr inbounds nuw i8, ptr %3, i64 24
  store ptr null, ptr %10, align 8
  store ptr getelementptr inbounds inrange(-16, 48) (i8, ptr @_ZTVN32pxrInternal_v0_24__pxrReserved__22UsdShadeConnectableAPIE, i64 16), ptr %3, align 8
  %11 = invoke fastcc noundef zeroext i1 @_ZN32pxrInternal_v0_24__pxrReserved__L19_IsGraphTimeVaryingERKNS_22UsdShadeConnectableAPIEPSt13unordered_setINS_7SdfPathENS4_4HashESt8equal_toIS4_ESaIS4_EE(ptr noundef nonnull align 8 dereferenceable(32) %3, ptr noundef nonnull %2)
          to label %12 unwind label %44

12:                                               ; preds = %9
  call void @_ZN32pxrInternal_v0_24__pxrReserved__22UsdShadeConnectableAPID1Ev(ptr noundef nonnull align 8 dereferenceable(32) %3) #17
  %13 = load ptr, ptr %6, align 8
  %.not5.i.i.i = icmp eq ptr %13, null
  br i1 %.not5.i.i.i, label %_ZNSt10_HashtableIN32pxrInternal_v0_24__pxrReserved__7SdfPathES1_SaIS1_ENSt8__detail9_IdentityESt8equal_toIS1_ENS1_4HashENS3_18_Mod_range_hashingENS3_20_Default_ranged_hashENS3_20_Prime_rehash_policyENS3_17_Hashtable_traitsILb1ELb1ELb1EEEE5clearEv.exit.i, label %.lr.ph.i.i.i

.lr.ph.i.i.i:                                     ; preds = %12, %_ZNSt8__detail16_Hashtable_allocISaINS_10_Hash_nodeIN32pxrInternal_v0_24__pxrReserved__7SdfPathELb1EEEEE18_M_deallocate_nodeEPS4_.exit.i.i.i
  %.06.i.i.i = phi ptr [ %14, %_ZNSt8__detail16_Hashtable_allocISaINS_10_Hash_nodeIN32pxrInternal_v0_24__pxrReserved__7SdfPathELb1EEEEE18_M_deallocate_nodeEPS4_.exit.i.i.i ], [ %13, %12 ]
  %14 = load ptr, ptr %.06.i.i.i, align 8
  %15 = getelementptr inbounds i8, ptr %.06.i.i.i, i64 8
  %16 = load i32, ptr %15, align 4
  %.not.i.i.i.i.i.i.i.i = icmp eq i32 %16, 0
  br i1 %.not.i.i.i.i.i.i.i.i, label %_ZNSt8__detail16_Hashtable_allocISaINS_10_Hash_nodeIN32pxrInternal_v0_24__pxrReserved__7SdfPathELb1EEEEE18_M_deallocate_nodeEPS4_.exit.i.i.i, label %17

17:                                               ; preds = %.lr.ph.i.i.i
  %18 = and i32 %16, 255
  %19 = lshr i32 %16, 8
  %20 = zext nneg i32 %18 to i64
  %21 = getelementptr inbounds [257 x ptr], ptr @_ZN32pxrInternal_v0_24__pxrReserved__8Sdf_PoolINS_15Sdf_PathPrimTagELj24ELj8ELj16384EE13_regionStartsE, i64 0, i64 %20
  %22 = load ptr, ptr %21, align 8
  %23 = mul nuw nsw i32 %19, 24
  %24 = zext nneg i32 %23 to i64
  %25 = getelementptr inbounds i8, ptr %22, i64 %24
  %26 = getelementptr inbounds nuw i8, ptr %25, i64 8
  %27 = atomicrmw sub ptr %26, i32 1 seq_cst, align 4
  %28 = and i32 %27, 2147483647
  %29 = icmp eq i32 %28, 1
  br i1 %29, label %30, label %_ZNSt8__detail16_Hashtable_allocISaINS_10_Hash_nodeIN32pxrInternal_v0_24__pxrReserved__7SdfPathELb1EEEEE18_M_deallocate_nodeEPS4_.exit.i.i.i

30:                                               ; preds = %17
  invoke void @_ZNK32pxrInternal_v0_24__pxrReserved__12Sdf_PathNode8_DestroyEv(ptr noundef nonnull align 8 dereferenceable(16) %25)
          to label %_ZNSt8__detail16_Hashtable_allocISaINS_10_Hash_nodeIN32pxrInternal_v0_24__pxrReserved__7SdfPathELb1EEEEE18_M_deallocate_nodeEPS4_.exit.i.i.i unwind label %31

31:                                               ; preds = %30
  %32 = landingpad { ptr, i32 }
          catch ptr null
  %33 = extractvalue { ptr, i32 } %32, 0
  call void @__clang_call_terminate(ptr %33) #19
  unreachable

_ZNSt8__detail16_Hashtable_allocISaINS_10_Hash_nodeIN32pxrInternal_v0_24__pxrReserved__7SdfPathELb1EEEEE18_M_deallocate_nodeEPS4_.exit.i.i.i: ; preds = %30, %17, %.lr.ph.i.i.i
  call void @_ZdlPvm(ptr noundef nonnull %.06.i.i.i, i64 noundef 24) #18
  %.not.i.i.i = icmp eq ptr %14, null
  br i1 %.not.i.i.i, label %_ZNSt10_HashtableIN32pxrInternal_v0_24__pxrReserved__7SdfPathES1_SaIS1_ENSt8__detail9_IdentityESt8equal_toIS1_ENS1_4HashENS3_18_Mod_range_hashingENS3_20_Default_ranged_hashENS3_20_Prime_rehash_policyENS3_17_Hashtable_traitsILb1ELb1ELb1EEEE5clearEv.exit.i, label %.lr.ph.i.i.i, !llvm.loop !6

_ZNSt10_HashtableIN32pxrInternal_v0_24__pxrReserved__7SdfPathES1_SaIS1_ENSt8__detail9_IdentityESt8equal_toIS1_ENS1_4HashENS3_18_Mod_range_hashingENS3_20_Default_ranged_hashENS3_20_Prime_rehash_policyENS3_17_Hashtable_traitsILb1ELb1ELb1EEEE5clearEv.exit.i: ; preds = %_ZNSt8__detail16_Hashtable_allocISaINS_10_Hash_nodeIN32pxrInternal_v0_24__pxrReserved__7SdfPathELb1EEEEE18_M_deallocate_nodeEPS4_.exit.i.i.i, %12
  %34 = load ptr, ptr %2, align 8
  %35 = load i64, ptr %5, align 8
  %36 = shl i64 %35, 3
  call void @llvm.memset.p0.i64(ptr align 8 %34, i8 0, i64 %36, i1 false)
  call void @llvm.memset.p0.i64(ptr noundef nonnull align 8 dereferenceable(16) %6, i8 0, i64 16, i1 false)
  %37 = load ptr, ptr %2, align 8
  %38 = icmp eq ptr %37, %4
  br i1 %38, label %_ZNSt10_HashtableIN32pxrInternal_v0_24__pxrReserved__7SdfPathES1_SaIS1_ENSt8__detail9_IdentityESt8equal_toIS1_ENS1_4HashENS3_18_Mod_range_hashingENS3_20_Default_ranged_hashENS3_20_Prime_rehash_policyENS3_17_Hashtable_traitsILb1ELb1ELb1EEEED2Ev.exit, label %39

39:                                               ; preds = %_ZNSt10_HashtableIN32pxrInternal_v0_24__pxrReserved__7SdfPathES1_SaIS1_ENSt8__detail9_IdentityESt8equal_toIS1_ENS1_4HashENS3_18_Mod_range_hashingENS3_20_Default_ranged_hashENS3_20_Prime_rehash_policyENS3_17_Hashtable_traitsILb1ELb1ELb1EEEE5clearEv.exit.i
  %40 = load i64, ptr %5, align 8
  %41 = shl i64 %40, 3
  call void @_ZdlPvm(ptr noundef %37, i64 noundef %41) #18
  br label %_ZNSt10_HashtableIN32pxrInternal_v0_24__pxrReserved__7SdfPathES1_SaIS1_ENSt8__detail9_IdentityESt8equal_toIS1_ENS1_4HashENS3_18_Mod_range_hashingENS3_20_Default_ranged_hashENS3_20_Prime_rehash_policyENS3_17_Hashtable_traitsILb1ELb1ELb1EEEED2Ev.exit

_ZNSt10_HashtableIN32pxrInternal_v0_24__pxrReserved__7SdfPathES1_SaIS1_ENSt8__detail9_IdentityESt8equal_toIS1_ENS1_4HashENS3_18_Mod_range_hashingENS3_20_Default_ranged_hashENS3_20_Prime_rehash_policyENS3_17_Hashtable_traitsILb1ELb1ELb1EEEED2Ev.exit: ; preds = %_ZNSt10_HashtableIN32pxrInternal_v0_24__pxrReserved__7SdfPathES1_SaIS1_ENSt8__detail9_IdentityESt8equal_toIS1_ENS1_4HashENS3_18_Mod_range_hashingENS3_20_Default_ranged_hashENS3_20_Prime_rehash_policyENS3_17_Hashtable_traitsILb1ELb1ELb1EEEE5clearEv.exit.i, %39
  ret i1 %11

42:                                               ; preds = %1
  %43 = landingpad { ptr, i32 }
          cleanup
  br label %46

44:                                               ; preds = %9
  %45 = landingpad { ptr, i32 }
          cleanup
  call void @_ZN32pxrInternal_v0_24__pxrReserved__22UsdShadeConnectableAPID1Ev(ptr noundef nonnull align 8 dereferenceable(32) %3) #17
  br label %46

46:                                               ; preds = %44, %42
  %.pn = phi { ptr, i32 } [ %45, %44 ], [ %43, %42 ]
  call void @_ZNSt10_HashtableIN32pxrInternal_v0_24__pxrReserved__7SdfPathES1_SaIS1_ENSt8__detail9_IdentityESt8equal_toIS1_ENS1_4HashENS3_18_Mod_range_hashingENS3_20_Default_ranged_hashENS3_20_Prime_rehash_policyENS3_17_Hashtable_traitsILb1ELb1ELb1EEEED2Ev(ptr noundef nonnull align 8 dereferenceable(56) %2) #17
  resume { ptr, i32 } %.pn
}